target datalayout = "e-m:e-p270:32:32-p271:32:32-p272:64:64-i64:64-i128:128-f80:128-n8:16:32:64-S128"
target triple = "x86_64-pc-linux-gnu"

%struct._lv_scale_t = type <{ %struct._lv_obj_t, %struct.lv_ll_t, ptr, i32, i32, i32, i64, i32, i32, i32, i32, i32 }>
%struct._lv_obj_t = type { ptr, ptr, ptr, ptr, ptr, %struct.lv_area_t, i32, i16, i16 }
%struct.lv_area_t = type { i32, i32, i32, i32 }
%struct.lv_ll_t = type { i32, ptr, ptr }
%struct.lv_point_precise_t = type { float, float }
%union.lv_style_value_t = type { ptr }

; Function Attrs: inlinehint nounwind uwtable
define internal i32 @lv_obj_get_style_height(ptr noundef %0, i32 noundef %1) #3 {
  %3 = alloca ptr, align 8
  %4 = alloca i32, align 4
  %5 = alloca %union.lv_style_value_t, align 8
  store ptr %0, ptr %3, align 8, !tbaa !3
  store i32 %1, ptr %4, align 4, !tbaa !25
  call void @llvm.lifetime.start.p0(i64 8, ptr %5) #7
  %6 = load ptr, ptr %3, align 8, !tbaa !3
  %7 = load i32, ptr %4, align 4, !tbaa !25
  %8 = call ptr @lv_obj_get_style_prop(ptr noundef %6, i32 noundef %7, i8 noundef zeroext 2)
  %9 = getelementptr inbounds nuw %union.lv_style_value_t, ptr %5, i32 0, i32 0
  store ptr %8, ptr %9, align 8
  %10 = load i32, ptr %5, align 8, !tbaa !35
  call void @llvm.lifetime.end.p0(i64 8, ptr %5) #7
  ret i32 %10
}

; Function Attrs: inlinehint nounwind uwtable
define internal i32 @lv_obj_get_style_width(ptr noundef %0, i32 noundef %1) #3 {
  %3 = alloca ptr, align 8
  %4 = alloca i32, align 4
  %5 = alloca %union.lv_style_value_t, align 8
  store ptr %0, ptr %3, align 8, !tbaa !3
  store i32 %1, ptr %4, align 4, !tbaa !25
  call void @llvm.lifetime.start.p0(i64 8, ptr %5) #7
  %6 = load ptr, ptr %3, align 8, !tbaa !3
  %7 = load i32, ptr %4, align 4, !tbaa !25
  %8 = call ptr @lv_obj_get_style_prop(ptr noundef %6, i32 noundef %7, i8 noundef zeroext 1)
  %9 = getelementptr inbounds nuw %union.lv_style_value_t, ptr %5, i32 0, i32 0
  store ptr %8, ptr %9, align 8
  %10 = load i32, ptr %5, align 8, !tbaa !35
  call void @llvm.lifetime.end.p0(i64 8, ptr %5) #7
  ret i32 %10
}

; Function Attrs: nounwind uwtable
define void @lv_scale_set_line_needle_value(ptr noundef %0, ptr noundef %1, i32 noundef %2, i32 noundef %3) #0 {
  %5 = alloca ptr, align 8
  %6 = alloca ptr, align 8
  %7 = alloca i32, align 4
  %8 = alloca i32, align 4
  %9 = alloca i32, align 4
  %10 = alloca i32, align 4
  %11 = alloca i32, align 4
  %12 = alloca i32, align 4
  %13 = alloca i32, align 4
  %14 = alloca i32, align 4
  %15 = alloca ptr, align 8
  %16 = alloca ptr, align 8
  %17 = alloca i32, align 4
  %18 = alloca i32, align 4
  %19 = alloca i32, align 4
  %20 = alloca ptr, align 8
  store ptr %0, ptr %5, align 8, !tbaa !3
  store ptr %1, ptr %6, align 8, !tbaa !3
  store i32 %2, ptr %7, align 4, !tbaa !25
  store i32 %3, ptr %8, align 4, !tbaa !25
  call void @llvm.lifetime.start.p0(i64 4, ptr %9) #7
  call void @llvm.lifetime.start.p0(i64 4, ptr %10) #7
  call void @llvm.lifetime.start.p0(i64 4, ptr %11) #7
  call void @llvm.lifetime.start.p0(i64 4, ptr %12) #7
  call void @llvm.lifetime.start.p0(i64 4, ptr %13) #7
  call void @llvm.lifetime.start.p0(i64 4, ptr %14) #7
  call void @llvm.lifetime.start.p0(i64 8, ptr %15) #7
  store ptr null, ptr %15, align 8, !tbaa !3
  br label %21

21:                                               ; preds = %4
  br label %22

22:                                               ; preds = %21
  br label %23

23:                                               ; preds = %22
  call void @llvm.lifetime.start.p0(i64 8, ptr %16) #7
  %24 = load ptr, ptr %5, align 8, !tbaa !3
  store ptr %24, ptr %16, align 8, !tbaa !3
  %25 = load ptr, ptr %16, align 8, !tbaa !3
  %26 = getelementptr inbounds nuw %struct._lv_scale_t, ptr %25, i32 0, i32 3
  %27 = load i32, ptr %26, align 8, !tbaa !7
  %28 = icmp ne i32 %27, 8
  br i1 %28, label %29, label %35

29:                                               ; preds = %23
  %30 = load ptr, ptr %16, align 8, !tbaa !3
  %31 = getelementptr inbounds nuw %struct._lv_scale_t, ptr %30, i32 0, i32 3
  %32 = load i32, ptr %31, align 8, !tbaa !7
  %33 = icmp ne i32 %32, 16
  br i1 %33, label %34, label %35

34:                                               ; preds = %29
  store i32 1, ptr %17, align 4
  br label %221

35:                                               ; preds = %29, %23
  %36 = load ptr, ptr %6, align 8, !tbaa !3
  call void @lv_obj_align(ptr noundef %36, i32 noundef 1, i32 noundef 0, i32 noundef 0)
  %37 = load ptr, ptr %5, align 8, !tbaa !3
  %38 = call i32 @lv_obj_get_style_width(ptr noundef %37, i32 noundef 0)
  store i32 %38, ptr %10, align 4, !tbaa !25
  %39 = load ptr, ptr %5, align 8, !tbaa !3
  %40 = call i32 @lv_obj_get_style_height(ptr noundef %39, i32 noundef 0)
  store i32 %40, ptr %11, align 4, !tbaa !25
  %41 = load i32, ptr %10, align 4, !tbaa !25
  %42 = load i32, ptr %11, align 4, !tbaa !25
  %43 = icmp ne i32 %41, %42
  br i1 %43, label %44, label %45

44:                                               ; preds = %35
  store i32 1, ptr %17, align 4
  br label %221

45:                                               ; preds = %35
  %46 = load i32, ptr %7, align 4, !tbaa !25
  %47 = load i32, ptr %10, align 4, !tbaa !25
  %48 = sdiv i32 %47, 2
  %49 = icmp sge i32 %46, %48
  br i1 %49, label %50, label %53

50:                                               ; preds = %45
  %51 = load i32, ptr %10, align 4, !tbaa !25
  %52 = sdiv i32 %51, 2
  store i32 %52, ptr %12, align 4, !tbaa !25
  br label %72

53:                                               ; preds = %45
  %54 = load i32, ptr %7, align 4, !tbaa !25
  %55 = icmp sge i32 %54, 0
  br i1 %55, label %56, label %58

56:                                               ; preds = %53
  %57 = load i32, ptr %7, align 4, !tbaa !25
  store i32 %57, ptr %12, align 4, !tbaa !25
  br label %71

58:                                               ; preds = %53
  %59 = load i32, ptr %7, align 4, !tbaa !25
  %60 = load i32, ptr %10, align 4, !tbaa !25
  %61 = sdiv i32 %60, 2
  %62 = add nsw i32 %59, %61
  %63 = icmp slt i32 %62, 0
  br i1 %63, label %64, label %65

64:                                               ; preds = %58
  store i32 0, ptr %12, align 4, !tbaa !25
  br label %70

65:                                               ; preds = %58
  %66 = load i32, ptr %10, align 4, !tbaa !25
  %67 = sdiv i32 %66, 2
  %68 = load i32, ptr %7, align 4, !tbaa !25
  %69 = add nsw i32 %67, %68
  store i32 %69, ptr %12, align 4, !tbaa !25
  br label %70

70:                                               ; preds = %65, %64
  br label %71

71:                                               ; preds = %70, %56
  br label %72

72:                                               ; preds = %71, %50
  %73 = load i32, ptr %8, align 4, !tbaa !25
  %74 = load ptr, ptr %16, align 8, !tbaa !3
  %75 = getelementptr inbounds nuw %struct._lv_scale_t, ptr %74, i32 0, i32 4
  %76 = load i32, ptr %75, align 4, !tbaa !16
  %77 = icmp slt i32 %73, %76
  br i1 %77, label %78, label %79

78:                                               ; preds = %72
  store i32 0, ptr %9, align 4, !tbaa !25
  br label %108

79:                                               ; preds = %72
  %80 = load i32, ptr %8, align 4, !tbaa !25
  %81 = load ptr, ptr %16, align 8, !tbaa !3
  %82 = getelementptr inbounds nuw %struct._lv_scale_t, ptr %81, i32 0, i32 5
  %83 = load i32, ptr %82, align 8, !tbaa !17
  %84 = icmp sgt i32 %80, %83
  br i1 %84, label %85, label %89

85:                                               ; preds = %79
  %86 = load ptr, ptr %16, align 8, !tbaa !3
  %87 = getelementptr inbounds nuw %struct._lv_scale_t, ptr %86, i32 0, i32 7
  %88 = load i32, ptr %87, align 4, !tbaa !14
  store i32 %88, ptr %9, align 4, !tbaa !25
  br label %107

89:                                               ; preds = %79
  %90 = load ptr, ptr %16, align 8, !tbaa !3
  %91 = getelementptr inbounds nuw %struct._lv_scale_t, ptr %90, i32 0, i32 7
  %92 = load i32, ptr %91, align 4, !tbaa !14
  %93 = load i32, ptr %8, align 4, !tbaa !25
  %94 = load ptr, ptr %16, align 8, !tbaa !3
  %95 = getelementptr inbounds nuw %struct._lv_scale_t, ptr %94, i32 0, i32 4
  %96 = load i32, ptr %95, align 4, !tbaa !16
  %97 = sub nsw i32 %93, %96
  %98 = mul i32 %92, %97
  %99 = load ptr, ptr %16, align 8, !tbaa !3
  %100 = getelementptr inbounds nuw %struct._lv_scale_t, ptr %99, i32 0, i32 5
  %101 = load i32, ptr %100, align 8, !tbaa !17
  %102 = load ptr, ptr %16, align 8, !tbaa !3
  %103 = getelementptr inbounds nuw %struct._lv_scale_t, ptr %102, i32 0, i32 4
  %104 = load i32, ptr %103, align 4, !tbaa !16
  %105 = sub nsw i32 %101, %104
  %106 = udiv i32 %98, %105
  store i32 %106, ptr %9, align 4, !tbaa !25
  br label %107

107:                                              ; preds = %89, %85
  br label %108

108:                                              ; preds = %107, %78
  %109 = load i32, ptr %12, align 4, !tbaa !25
  %110 = load ptr, ptr %16, align 8, !tbaa !3
  %111 = getelementptr inbounds nuw %struct._lv_scale_t, ptr %110, i32 0, i32 8
  %112 = load i32, ptr %111, align 8, !tbaa !15
  %113 = load i32, ptr %9, align 4, !tbaa !25
  %114 = add nsw i32 %112, %113
  %115 = trunc i32 %114 to i16
  %116 = call i32 @lv_trigo_cos(i16 noundef signext %115)
  %117 = mul nsw i32 %109, %116
  %118 = ashr i32 %117, 15
  store i32 %118, ptr %13, align 4, !tbaa !25
  %119 = load i32, ptr %12, align 4, !tbaa !25
  %120 = load ptr, ptr %16, align 8, !tbaa !3
  %121 = getelementptr inbounds nuw %struct._lv_scale_t, ptr %120, i32 0, i32 8
  %122 = load i32, ptr %121, align 8, !tbaa !15
  %123 = load i32, ptr %9, align 4, !tbaa !25
  %124 = add nsw i32 %122, %123
  %125 = trunc i32 %124 to i16
  %126 = call i32 @lv_trigo_sin(i16 noundef signext %125)
  %127 = mul nsw i32 %119, %126
  %128 = ashr i32 %127, 15
  store i32 %128, ptr %14, align 4, !tbaa !25
  %129 = load ptr, ptr %6, align 8, !tbaa !3
  %130 = call zeroext i1 @lv_line_is_point_array_mutable(ptr noundef %129)
  br i1 %130, label %131, label %138

131:                                              ; preds = %108
  %132 = load ptr, ptr %6, align 8, !tbaa !3
  %133 = call i32 @lv_line_get_point_count(ptr noundef %132)
  %134 = icmp uge i32 %133, 2
  br i1 %134, label %135, label %138

135:                                              ; preds = %131
  %136 = load ptr, ptr %6, align 8, !tbaa !3
  %137 = call ptr @lv_line_get_points_mutable(ptr noundef %136)
  store ptr %137, ptr %15, align 8, !tbaa !3
  br label %138

138:                                              ; preds = %135, %131, %108
  %139 = load ptr, ptr %15, align 8, !tbaa !3
  %140 = icmp eq ptr %139, null
  br i1 %140, label %141, label %166

141:                                              ; preds = %138
  call void @llvm.lifetime.start.p0(i64 4, ptr %18) #7
  call void @llvm.lifetime.start.p0(i64 4, ptr %19) #7
  %142 = load ptr, ptr %6, align 8, !tbaa !3
  %143 = call i32 @lv_obj_get_event_count(ptr noundef %142)
  store i32 %143, ptr %19, align 4, !tbaa !25
  store i32 0, ptr %18, align 4, !tbaa !25
  br label %144

144:                                              ; preds = %162, %141
  %145 = load i32, ptr %18, align 4, !tbaa !25
  %146 = load i32, ptr %19, align 4, !tbaa !25
  %147 = icmp ult i32 %145, %146
  br i1 %147, label %148, label %165

148:                                              ; preds = %144
  call void @llvm.lifetime.start.p0(i64 8, ptr %20) #7
  %149 = load ptr, ptr %6, align 8, !tbaa !3
  %150 = load i32, ptr %18, align 4, !tbaa !25
  %151 = call ptr @lv_obj_get_event_dsc(ptr noundef %149, i32 noundef %150)
  store ptr %151, ptr %20, align 8, !tbaa !3
  %152 = load ptr, ptr %20, align 8, !tbaa !3
  %153 = call ptr @lv_event_dsc_get_cb(ptr noundef %152)
  %154 = icmp eq ptr %153, @scale_free_line_needle_points_cb
  br i1 %154, label %155, label %158

155:                                              ; preds = %148
  %156 = load ptr, ptr %20, align 8, !tbaa !3
  %157 = call ptr @lv_event_dsc_get_user_data(ptr noundef %156)
  store ptr %157, ptr %15, align 8, !tbaa !3
  store i32 4, ptr %17, align 4
  br label %159

158:                                              ; preds = %148
  store i32 0, ptr %17, align 4
  br label %159

159:                                              ; preds = %158, %155
  call void @llvm.lifetime.end.p0(i64 8, ptr %20) #7
  %160 = load i32, ptr %17, align 4
  switch i32 %160, label %224 [
    i32 0, label %161
    i32 4, label %165
  ]

161:                                              ; preds = %159
  br label %162

162:                                              ; preds = %161
  %163 = load i32, ptr %18, align 4, !tbaa !25
  %164 = add i32 %163, -1
  store i32 %164, ptr %18, align 4, !tbaa !25
  br label %144, !llvm.loop !30

165:                                              ; preds = %159, %144
  call void @llvm.lifetime.end.p0(i64 4, ptr %19) #7
  call void @llvm.lifetime.end.p0(i64 4, ptr %18) #7
  br label %166

166:                                              ; preds = %165, %138
  %167 = load ptr, ptr %15, align 8, !tbaa !3
  %168 = icmp eq ptr %167, null
  br i1 %168, label %169, label %190

169:                                              ; preds = %166
  %170 = call ptr @lv_malloc(i64 noundef 16)
  store ptr %170, ptr %15, align 8, !tbaa !3
  br label %171

171:                                              ; preds = %169
  %172 = load ptr, ptr %15, align 8, !tbaa !3
  %173 = icmp ne ptr %172, null
  br i1 %173, label %180, label %174

174:                                              ; preds = %171
  br label %175

175:                                              ; preds = %174
  br label %176

176:                                              ; preds = %175
  br label %177

177:                                              ; preds = %176
  br label %178

178:                                              ; preds = %179, %177
  br label %179

179:                                              ; preds = %178
  br label %178

180:                                              ; preds = %171
  br label %181

181:                                              ; preds = %180
  br label %182

182:                                              ; preds = %181
  %183 = load ptr, ptr %15, align 8, !tbaa !3
  %184 = icmp eq ptr %183, null
  br i1 %184, label %185, label %186

185:                                              ; preds = %182
  store i32 1, ptr %17, align 4
  br label %221

186:                                              ; preds = %182
  %187 = load ptr, ptr %6, align 8, !tbaa !3
  %188 = load ptr, ptr %15, align 8, !tbaa !3
  %189 = call ptr @lv_obj_add_event_cb(ptr noundef %187, ptr noundef @scale_free_line_needle_points_cb, i32 noundef 41, ptr noundef %188)
  br label %190

190:                                              ; preds = %186, %166
  %191 = load i32, ptr %10, align 4, !tbaa !25
  %192 = sdiv i32 %191, 2
  %193 = sitofp i32 %192 to float
  %194 = load ptr, ptr %15, align 8, !tbaa !3
  %195 = getelementptr inbounds %struct.lv_point_precise_t, ptr %194, i64 0
  %196 = getelementptr inbounds nuw %struct.lv_point_precise_t, ptr %195, i32 0, i32 0
  store float %193, ptr %196, align 4, !tbaa !31
  %197 = load i32, ptr %11, align 4, !tbaa !25
  %198 = sdiv i32 %197, 2
  %199 = sitofp i32 %198 to float
  %200 = load ptr, ptr %15, align 8, !tbaa !3
  %201 = getelementptr inbounds %struct.lv_point_precise_t, ptr %200, i64 0
  %202 = getelementptr inbounds nuw %struct.lv_point_precise_t, ptr %201, i32 0, i32 1
  store float %199, ptr %202, align 4, !tbaa !34
  %203 = load i32, ptr %10, align 4, !tbaa !25
  %204 = sdiv i32 %203, 2
  %205 = load i32, ptr %13, align 4, !tbaa !25
  %206 = add nsw i32 %204, %205
  %207 = sitofp i32 %206 to float
  %208 = load ptr, ptr %15, align 8, !tbaa !3
  %209 = getelementptr inbounds %struct.lv_point_precise_t, ptr %208, i64 1
  %210 = getelementptr inbounds nuw %struct.lv_point_precise_t, ptr %209, i32 0, i32 0
  store float %207, ptr %210, align 4, !tbaa !31
  %211 = load i32, ptr %11, align 4, !tbaa !25
  %212 = sdiv i32 %211, 2
  %213 = load i32, ptr %14, align 4, !tbaa !25
  %214 = add nsw i32 %212, %213
  %215 = sitofp i32 %214 to float
  %216 = load ptr, ptr %15, align 8, !tbaa !3
  %217 = getelementptr inbounds %struct.lv_point_precise_t, ptr %216, i64 1
  %218 = getelementptr inbounds nuw %struct.lv_point_precise_t, ptr %217, i32 0, i32 1
  store float %215, ptr %218, align 4, !tbaa !34
  %219 = load ptr, ptr %6, align 8, !tbaa !3
  %220 = load ptr, ptr %15, align 8, !tbaa !3
  call void @lv_line_set_points_mutable(ptr noundef %219, ptr noundef %220, i32 noundef 2)
  store i32 0, ptr %17, align 4
  br label %221

221:                                              ; preds = %190, %185, %44, %34
  call void @llvm.lifetime.end.p0(i64 8, ptr %16) #7
  call void @llvm.lifetime.end.p0(i64 8, ptr %15) #7
  call void @llvm.lifetime.end.p0(i64 4, ptr %14) #7
  call void @llvm.lifetime.end.p0(i64 4, ptr %13) #7
  call void @llvm.lifetime.end.p0(i64 4, ptr %12) #7
  call void @llvm.lifetime.end.p0(i64 4, ptr %11) #7
  call void @llvm.lifetime.end.p0(i64 4, ptr %10) #7
  call void @llvm.lifetime.end.p0(i64 4, ptr %9) #7
  %222 = load i32, ptr %17, align 4
  switch i32 %222, label %224 [
    i32 0, label %223
    i32 1, label %223
  ]

223:                                              ; preds = %221, %221
  ret void

224:                                              ; preds = %221, %159
  unreachable
}