; Function Attrs: nounwind uwtable
define void @lv_scale_set_line_needle_value(ptr noundef %0, ptr noundef %1, i32 noundef %2, i32 noundef %3) local_unnamed_addr #0 {
  %5 = getelementptr inbounds nuw i8, ptr %0, i64 96
  %6 = load i32, ptr %5, align 8, !tbaa !3
  switch i32 %6, label %72 [
    i32 8, label %7
    i32 16, label %7
  ]

7:                                                ; preds = %4, %4
  tail call void @lv_obj_align(ptr noundef %1, i32 noundef 1, i32 noundef 0, i32 noundef 0) #9
  %8 = tail call ptr @lv_obj_get_style_prop(ptr noundef nonnull %0, i32 noundef 0, i8 noundef zeroext 1) #9
  %9 = ptrtoint ptr %8 to i64
  %.sroa.0.0.extract.trunc.i = trunc i64 %9 to i32
  %10 = tail call ptr @lv_obj_get_style_prop(ptr noundef nonnull %0, i32 noundef 0, i8 noundef zeroext 2) #9
  %11 = ptrtoint ptr %10 to i64
  %.sroa.0.0.extract.trunc.i81 = trunc i64 %11 to i32
  %.not78 = icmp eq i32 %.sroa.0.0.extract.trunc.i, %.sroa.0.0.extract.trunc.i81
  br i1 %.not78, label %12, label %72

12:                                               ; preds = %7
  %13 = sdiv i32 %.sroa.0.0.extract.trunc.i, 2
  %.not79 = icmp slt i32 %2, %13
  br i1 %.not79, label %14, label %18

14:                                               ; preds = %12
  %15 = icmp sgt i32 %2, -1
  br i1 %15, label %18, label %16

16:                                               ; preds = %14
  %17 = add nsw i32 %13, %2
  %. = tail call i32 @llvm.smax.i32(i32 %17, i32 0)
  br label %18

18:                                               ; preds = %16, %14, %12
  %.062 = phi i32 [ %13, %12 ], [ %2, %14 ], [ %., %16 ]
  %19 = getelementptr inbounds nuw i8, ptr %0, i64 100
  %20 = load i32, ptr %19, align 4, !tbaa !15
  %21 = icmp slt i32 %3, %20
  br i1 %21, label %33, label %22

22:                                               ; preds = %18
  %23 = getelementptr inbounds nuw i8, ptr %0, i64 104
  %24 = load i32, ptr %23, align 8, !tbaa !16
  %25 = icmp sgt i32 %3, %24
  %26 = getelementptr inbounds nuw i8, ptr %0, i64 116
  %27 = load i32, ptr %26, align 4, !tbaa !13
  br i1 %25, label %33, label %28

28:                                               ; preds = %22
  %29 = sub nsw i32 %3, %20
  %30 = mul i32 %27, %29
  %31 = sub nsw i32 %24, %20
  %32 = udiv i32 %30, %31
  br label %33

33:                                               ; preds = %22, %18, %28
  %.0 = phi i32 [ %32, %28 ], [ 0, %18 ], [ %27, %22 ]
  %34 = getelementptr inbounds nuw i8, ptr %0, i64 120
  %35 = load i32, ptr %34, align 8, !tbaa !14
  %36 = add nsw i32 %35, %.0
  %37 = trunc i32 %36 to i16
  %38 = tail call i32 @lv_trigo_cos(i16 noundef signext %37) #9
  %39 = mul nsw i32 %38, %.062
  %40 = ashr i32 %39, 15
  %41 = load i32, ptr %34, align 8, !tbaa !14
  %42 = add nsw i32 %41, %.0
  %43 = trunc i32 %42 to i16
  %44 = tail call i32 @lv_trigo_sin(i16 noundef signext %43) #9
  %45 = mul nsw i32 %44, %.062
  %46 = ashr i32 %45, 15
  %47 = tail call zeroext i1 @lv_line_is_point_array_mutable(ptr noundef %1) #9
  br i1 %47, label %48, label %.thread

48:                                               ; preds = %33
  %49 = tail call i32 @lv_line_get_point_count(ptr noundef %1) #9
  %50 = icmp ugt i32 %49, 1
  br i1 %50, label %51, label %.thread

51:                                               ; preds = %48
  %52 = tail call ptr @lv_line_get_points_mutable(ptr noundef %1) #9
  %53 = icmp eq ptr %52, null
  br i1 %53, label %.thread, label %.thread90

.thread:                                          ; preds = %33, %48, %51
  %54 = tail call i32 @lv_obj_get_event_count(ptr noundef %1) #9
  %.not = icmp eq i32 %54, 0
  br i1 %.not, label %.thread88, label %.lr.ph.preheader

.lr.ph.preheader:                                 ; preds = %.thread
  %55 = tail call ptr @lv_obj_get_event_dsc(ptr noundef %1, i32 noundef 0) #9
  %56 = tail call ptr @lv_event_dsc_get_cb(ptr noundef %55) #9
  %57 = icmp eq ptr %56, @scale_free_line_needle_points_cb
  br i1 %57, label %58, label %.thread88

58:                                               ; preds = %.lr.ph.preheader
  %59 = tail call ptr @lv_event_dsc_get_user_data(ptr noundef %55) #9
  %60 = icmp eq ptr %59, null
  br i1 %60, label %.thread88, label %.thread90

.thread88:                                        ; preds = %.lr.ph.preheader, %.thread, %58
  %61 = tail call ptr @lv_malloc(i64 noundef 16) #9
  %.not80 = icmp eq ptr %61, null
  br i1 %.not80, label %.preheader, label %62

.preheader:                                       ; preds = %.thread88, %.preheader
  br label %.preheader

62:                                               ; preds = %.thread88
  %63 = tail call ptr @lv_obj_add_event_cb(ptr noundef %1, ptr noundef nonnull @scale_free_line_needle_points_cb, i32 noundef 41, ptr noundef nonnull %61) #9
  br label %.thread90

.thread90:                                        ; preds = %51, %62, %58
  %.5 = phi ptr [ %61, %62 ], [ %59, %58 ], [ %52, %51 ]
  %64 = sitofp i32 %13 to float
  store float %64, ptr %.5, align 4, !tbaa !24
  %65 = getelementptr inbounds nuw i8, ptr %.5, i64 4
  store float %64, ptr %65, align 4, !tbaa !27
  %66 = add nsw i32 %40, %13
  %67 = sitofp i32 %66 to float
  %68 = getelementptr inbounds i8, ptr %.5, i64 8
  store float %67, ptr %68, align 4, !tbaa !24
  %69 = add nsw i32 %46, %13
  %70 = sitofp i32 %69 to float
  %71 = getelementptr inbounds i8, ptr %.5, i64 12
  store float %70, ptr %71, align 4, !tbaa !27
  tail call void @lv_line_set_points_mutable(ptr noundef %1, ptr noundef nonnull %.5, i32 noundef 2) #9
  br label %72

72:                                               ; preds = %7, %4, %.thread90
  ret void
}